target datalayout = "e-m:e-p270:32:32-p271:32:32-p272:64:64-i64:64-i128:128-f80:128-n8:16:32:64-S128"
target triple = "x86_64-unknown-linux-gnu"

%class.btSimpleBroadphase = type { %class.btBroadphaseInterface, i32, i32, i32, ptr, ptr, i32, ptr, i8, i32 }
%class.btBroadphaseInterface = type { ptr }

; Function Attrs: mustprogress nounwind uwtable
define linkonce_odr dso_local void @_ZN21btBroadphaseInterfaceD2Ev(ptr noundef nonnull align 8 dereferenceable(8) %this) unnamed_addr #1 comdat align 2 {
entry:
  %this.addr = alloca ptr, align 8
  store ptr %this, ptr %this.addr, align 8
  ret void
}

; Function Attrs: mustprogress nounwind uwtable
define dso_local void @_ZN18btSimpleBroadphaseD2Ev(ptr noundef nonnull align 8 dereferenceable(64) %this) unnamed_addr #1 align 2 personality ptr @__gxx_personality_v0 {
entry:
  %this.addr = alloca ptr, align 8
  store ptr %this, ptr %this.addr, align 8
  %this1 = load ptr, ptr %this.addr, align 8
  store ptr getelementptr inbounds ({ [16 x ptr] }, ptr @_ZTV18btSimpleBroadphase, i32 0, i32 0, i32 2), ptr %this1, align 8
  %m_pHandlesRawPtr = getelementptr inbounds %class.btSimpleBroadphase, ptr %this1, i32 0, i32 5
  %0 = load ptr, ptr %m_pHandlesRawPtr, align 8
  invoke void @_Z21btAlignedFreeInternalPv(ptr noundef %0)
          to label %invoke.cont unwind label %terminate.lpad

invoke.cont:                                      ; preds = %entry
  %m_ownsPairCache = getelementptr inbounds %class.btSimpleBroadphase, ptr %this1, i32 0, i32 8
  %1 = load i8, ptr %m_ownsPairCache, align 8
  %tobool = trunc i8 %1 to i1
  br i1 %tobool, label %if.then, label %if.end

if.then:                                          ; preds = %invoke.cont
  %m_pairCache = getelementptr inbounds %class.btSimpleBroadphase, ptr %this1, i32 0, i32 7
  %2 = load ptr, ptr %m_pairCache, align 8
  %vtable = load ptr, ptr %2, align 8
  %vfn = getelementptr inbounds ptr, ptr %vtable, i64 0
  %3 = load ptr, ptr %vfn, align 8
  call void %3(ptr noundef nonnull align 8 dereferenceable(8) %2) #9
  %m_pairCache2 = getelementptr inbounds %class.btSimpleBroadphase, ptr %this1, i32 0, i32 7
  %4 = load ptr, ptr %m_pairCache2, align 8
  invoke void @_Z21btAlignedFreeInternalPv(ptr noundef %4)
          to label %invoke.cont3 unwind label %terminate.lpad

invoke.cont3:                                     ; preds = %if.then
  br label %if.end

if.end:                                           ; preds = %invoke.cont3, %invoke.cont
  call void @_ZN21btBroadphaseInterfaceD2Ev(ptr noundef nonnull align 8 dereferenceable(8) %this1) #9
  ret void

terminate.lpad:                                   ; preds = %if.then, %entry
  %5 = landingpad { ptr, i32 }
          catch ptr null
  %6 = extractvalue { ptr, i32 } %5, 0
  call void @__clang_call_terminate(ptr %6) #10
  unreachable
}