; Function Attrs: mustprogress nounwind uwtable
define dso_local void @_ZN18btSimpleBroadphaseD2Ev(ptr nocapture noundef nonnull align 8 dereferenceable(64) %this) unnamed_addr #3 align 2 personality ptr @__gxx_personality_v0 {
entry:
  store ptr getelementptr inbounds ({ [16 x ptr] }, ptr @_ZTV18btSimpleBroadphase, i64 0, i32 0, i64 2), ptr %this, align 8
  %m_pHandlesRawPtr = getelementptr inbounds i8, ptr %this, i64 32
  %0 = load ptr, ptr %m_pHandlesRawPtr, align 8
  invoke void @_Z21btAlignedFreeInternalPv(ptr noundef %0)
          to label %invoke.cont unwind label %terminate.lpad

invoke.cont:                                      ; preds = %entry
  %m_ownsPairCache = getelementptr inbounds i8, ptr %this, i64 56
  %1 = load i8, ptr %m_ownsPairCache, align 8
  %2 = and i8 %1, 1
  %tobool.not = icmp eq i8 %2, 0
  br i1 %tobool.not, label %if.end, label %if.then

if.then:                                          ; preds = %invoke.cont
  %m_pairCache = getelementptr inbounds i8, ptr %this, i64 48
  %3 = load ptr, ptr %m_pairCache, align 8
  %vtable = load ptr, ptr %3, align 8
  %4 = load ptr, ptr %vtable, align 8
  tail call void %4(ptr noundef nonnull align 8 dereferenceable(8) %3) #12
  %5 = load ptr, ptr %m_pairCache, align 8
  invoke void @_Z21btAlignedFreeInternalPv(ptr noundef %5)
          to label %if.end unwind label %terminate.lpad

if.end:                                           ; preds = %if.then, %invoke.cont
  ret void

terminate.lpad:                                   ; preds = %if.then, %entry
  %6 = landingpad { ptr, i32 }
          catch ptr null
  %7 = extractvalue { ptr, i32 } %6, 0
  tail call void @__clang_call_terminate(ptr %7) #13
  unreachable
}